target datalayout = "e-m:e-p270:32:32-p271:32:32-p272:64:64-i64:64-i128:128-f80:128-n8:16:32:64-S128"
target triple = "x86_64-pc-linux-gnu"

%struct.H5VL_connector_prop_t = type { i64, ptr }

@.str.2 = private unnamed_addr constant [101 x i8] c"generated/home/dtcxzyw/WorkSpace/Projects/compilers/llvm-opt-benchmark/bench/hdf5/hdf5/src/H5VLint.c\00", align 1
@H5E_VOL_g = external global i64, align 8
@H5E_CANTRELEASE_g = external global i64, align 8
@H5E_CANTDEC_g = external global i64, align 8
@__func__.H5VL_conn_free = private unnamed_addr constant [15 x i8] c"H5VL_conn_free\00", align 1
@.str.38 = private unnamed_addr constant [44 x i8] c"unable to release VOL connector info object\00", align 1
@.str.39 = private unnamed_addr constant [49 x i8] c"can't decrement reference count for connector ID\00", align 1

; Function Attrs: nounwind uwtable
define i32 @H5VL_conn_free(ptr noundef %0) #0 {
  %2 = alloca ptr, align 8
  %3 = alloca i32, align 4
  %4 = alloca i8, align 1
  store ptr %0, ptr %2, align 8
  store i32 0, ptr %3, align 4
  store i8 0, ptr %4, align 1
  %5 = load ptr, ptr %2, align 8
  %6 = icmp ne ptr %5, null
  br i1 %6, label %7, label %65

7:                                                ; preds = %1
  %8 = load ptr, ptr %2, align 8
  %9 = getelementptr inbounds %struct.H5VL_connector_prop_t, ptr %8, i32 0, i32 0
  %10 = load i64, ptr %9, align 8
  %11 = icmp sgt i64 %10, 0
  br i1 %11, label %12, label %64

12:                                               ; preds = %7
  %13 = load ptr, ptr %2, align 8
  %14 = getelementptr inbounds %struct.H5VL_connector_prop_t, ptr %13, i32 0, i32 1
  %15 = load ptr, ptr %14, align 8
  %16 = icmp ne ptr %15, null
  br i1 %16, label %17, label %42

17:                                               ; preds = %12
  %18 = load ptr, ptr %2, align 8
  %19 = getelementptr inbounds %struct.H5VL_connector_prop_t, ptr %18, i32 0, i32 0
  %20 = load i64, ptr %19, align 8
  %21 = load ptr, ptr %2, align 8
  %22 = getelementptr inbounds %struct.H5VL_connector_prop_t, ptr %21, i32 0, i32 1
  %23 = load ptr, ptr %22, align 8
  %24 = call i32 @H5VL_free_connector_info(i64 noundef %20, ptr noundef %23)
  %25 = icmp slt i32 %24, 0
  br i1 %25, label %26, label %41

26:                                               ; preds = %17
  br label %27

27:                                               ; preds = %26
  br label %28

28:                                               ; preds = %27
  br label %29

29:                                               ; preds = %28
  %30 = load i64, ptr @H5E_VOL_g, align 8
  %31 = load i64, ptr @H5E_CANTRELEASE_g, align 8
  %32 = call i32 (ptr, ptr, i32, i64, i64, ptr, ...) @H5E_printf_stack(ptr noundef @.str.2, ptr noundef @__func__.H5VL_conn_free, i32 noundef 653, i64 noundef %30, i64 noundef %31, ptr noundef @.str.38)
  br label %33

33:                                               ; preds = %29
  store i8 1, ptr %4, align 1
  %34 = load i8, ptr %4, align 1
  %35 = trunc i8 %34 to i1
  %36 = zext i1 %35 to i8
  store i8 %36, ptr %4, align 1
  br label %37

37:                                               ; preds = %33
  br label %38

38:                                               ; preds = %37
  store i32 -1, ptr %3, align 4
  br label %66

39:                                               ; No predecessors!
  br label %40

40:                                               ; preds = %39
  br label %41

41:                                               ; preds = %40, %17
  br label %42

42:                                               ; preds = %41, %12
  %43 = load ptr, ptr %2, align 8
  %44 = getelementptr inbounds %struct.H5VL_connector_prop_t, ptr %43, i32 0, i32 0
  %45 = load i64, ptr %44, align 8
  %46 = call i32 @H5I_dec_ref(i64 noundef %45)
  %47 = icmp slt i32 %46, 0
  br i1 %47, label %48, label %63

48:                                               ; preds = %42
  br label %49

49:                                               ; preds = %48
  br label %50

50:                                               ; preds = %49
  br label %51

51:                                               ; preds = %50
  %52 = load i64, ptr @H5E_VOL_g, align 8
  %53 = load i64, ptr @H5E_CANTDEC_g, align 8
  %54 = call i32 (ptr, ptr, i32, i64, i64, ptr, ...) @H5E_printf_stack(ptr noundef @.str.2, ptr noundef @__func__.H5VL_conn_free, i32 noundef 657, i64 noundef %52, i64 noundef %53, ptr noundef @.str.39)
  br label %55

55:                                               ; preds = %51
  store i8 1, ptr %4, align 1
  %56 = load i8, ptr %4, align 1
  %57 = trunc i8 %56 to i1
  %58 = zext i1 %57 to i8
  store i8 %58, ptr %4, align 1
  br label %59

59:                                               ; preds = %55
  br label %60

60:                                               ; preds = %59
  store i32 -1, ptr %3, align 4
  br label %66

61:                                               ; No predecessors!
  br label %62

62:                                               ; preds = %61
  br label %63

63:                                               ; preds = %62, %42
  br label %64

64:                                               ; preds = %63, %7
  br label %65

65:                                               ; preds = %64, %1
  br label %66

66:                                               ; preds = %65, %60, %38
  %67 = load i32, ptr %3, align 4
  ret i32 %67
}