; Function Attrs: nounwind uwtable
define range(i32 -1, 1) i32 @H5VL_conn_free(ptr noundef readonly %0) local_unnamed_addr #0 {
  %.not = icmp eq ptr %0, null
  br i1 %.not, label %23, label %2

2:                                                ; preds = %1
  %3 = load i64, ptr %0, align 8
  %4 = icmp sgt i64 %3, 0
  br i1 %4, label %5, label %23

5:                                                ; preds = %2
  %6 = getelementptr inbounds i8, ptr %0, i64 8
  %7 = load ptr, ptr %6, align 8
  %.not11 = icmp eq ptr %7, null
  br i1 %.not11, label %15, label %8

8:                                                ; preds = %5
  %9 = tail call i32 @H5VL_free_connector_info(i64 noundef %3, ptr noundef nonnull %7) #10
  %10 = icmp slt i32 %9, 0
  br i1 %10, label %11, label %._crit_edge

._crit_edge:                                      ; preds = %8
  %.pre = load i64, ptr %0, align 8
  br label %15

11:                                               ; preds = %8
  %12 = load i64, ptr @H5E_VOL_g, align 8
  %13 = load i64, ptr @H5E_CANTRELEASE_g, align 8
  %14 = tail call i32 (ptr, ptr, i32, i64, i64, ptr, ...) @H5E_printf_stack(ptr noundef nonnull @.str.2, ptr noundef nonnull @__func__.H5VL_conn_free, i32 noundef 653, i64 noundef %12, i64 noundef %13, ptr noundef nonnull @.str.38) #10
  br label %23

15:                                               ; preds = %._crit_edge, %5
  %16 = phi i64 [ %.pre, %._crit_edge ], [ %3, %5 ]
  %17 = tail call i32 @H5I_dec_ref(i64 noundef %16) #10
  %18 = icmp slt i32 %17, 0
  br i1 %18, label %19, label %23

19:                                               ; preds = %15
  %20 = load i64, ptr @H5E_VOL_g, align 8
  %21 = load i64, ptr @H5E_CANTDEC_g, align 8
  %22 = tail call i32 (ptr, ptr, i32, i64, i64, ptr, ...) @H5E_printf_stack(ptr noundef nonnull @.str.2, ptr noundef nonnull @__func__.H5VL_conn_free, i32 noundef 657, i64 noundef %20, i64 noundef %21, ptr noundef nonnull @.str.39) #10
  br label %23

23:                                               ; preds = %1, %15, %2, %19, %11
  %.0 = phi i32 [ -1, %11 ], [ -1, %19 ], [ 0, %15 ], [ 0, %2 ], [ 0, %1 ]
  ret i32 %.0
}